target datalayout = "e-m:e-p270:32:32-p271:32:32-p272:64:64-i64:64-i128:128-f80:128-n8:16:32:64-S128"
target triple = "x86_64-pc-linux-gnu"

%struct.H5S_t = type { %struct.H5S_extent_t, %struct.H5S_select_t }
%struct.H5S_extent_t = type { %struct.H5O_shared_t, i32, i32, i64, i32, ptr, ptr }
%struct.H5O_shared_t = type { i32, ptr, i32, %union.anon }
%union.anon = type { %struct.H5O_mesg_loc_t }
%struct.H5O_mesg_loc_t = type { i32, i64 }
%struct.H5S_select_t = type { ptr, i8, [32 x i64], i64, %union.anon.0 }
%union.anon.0 = type { ptr }
%struct.H5S_select_class_t = type { i32, ptr, ptr, ptr, ptr, ptr, ptr, ptr, ptr, ptr, ptr, ptr, ptr, ptr, ptr, ptr, ptr, ptr, ptr, ptr, ptr }

@H5S_init_g = external global i8, align 1
@H5_libterm_g = external global i8, align 1

; Function Attrs: nounwind uwtable
define internal i32 @H5S__none_serialize(ptr noundef %0, ptr noundef %1) #0 {
  %3 = alloca ptr, align 8
  %4 = alloca ptr, align 8
  %5 = alloca ptr, align 8
  store ptr %0, ptr %3, align 8, !tbaa !3
  store ptr %1, ptr %4, align 8, !tbaa !21
  call void @llvm.lifetime.start.p0(i64 8, ptr %5) #5
  %6 = load ptr, ptr %4, align 8, !tbaa !21
  %7 = load ptr, ptr %6, align 8, !tbaa !23
  store ptr %7, ptr %5, align 8, !tbaa !23
  %8 = load i8, ptr @H5S_init_g, align 1, !tbaa !8, !range !10, !noundef !11
  %9 = trunc i8 %8 to i1
  br i1 %9, label %14, label %10

10:                                               ; preds = %2
  %11 = load i8, ptr @H5_libterm_g, align 1, !tbaa !8, !range !10, !noundef !11
  %12 = trunc i8 %11 to i1
  %13 = xor i1 %12, true
  br label %14

14:                                               ; preds = %10, %2
  %15 = phi i1 [ true, %2 ], [ %13, %10 ]
  %16 = xor i1 %15, true
  %17 = xor i1 %16, true
  %18 = zext i1 %17 to i32
  %19 = sext i32 %18 to i64
  %20 = call i64 @llvm.expect.i64(i64 %19, i64 1)
  %21 = icmp ne i64 %20, 0
  br i1 %21, label %22, label %120

22:                                               ; preds = %14
  br label %23

23:                                               ; preds = %22
  %24 = load ptr, ptr %3, align 8, !tbaa !3
  %25 = getelementptr inbounds nuw %struct.H5S_t, ptr %24, i32 0, i32 1
  %26 = getelementptr inbounds nuw %struct.H5S_select_t, ptr %25, i32 0, i32 0
  %27 = load ptr, ptr %26, align 8, !tbaa !25
  %28 = getelementptr inbounds nuw %struct.H5S_select_class_t, ptr %27, i32 0, i32 0
  %29 = load i32, ptr %28, align 8, !tbaa !26
  %30 = and i32 %29, 255
  %31 = trunc i32 %30 to i8
  %32 = load ptr, ptr %5, align 8, !tbaa !23
  store i8 %31, ptr %32, align 1, !tbaa !28
  %33 = load ptr, ptr %5, align 8, !tbaa !23
  %34 = getelementptr inbounds nuw i8, ptr %33, i32 1
  store ptr %34, ptr %5, align 8, !tbaa !23
  %35 = load ptr, ptr %3, align 8, !tbaa !3
  %36 = getelementptr inbounds nuw %struct.H5S_t, ptr %35, i32 0, i32 1
  %37 = getelementptr inbounds nuw %struct.H5S_select_t, ptr %36, i32 0, i32 0
  %38 = load ptr, ptr %37, align 8, !tbaa !25
  %39 = getelementptr inbounds nuw %struct.H5S_select_class_t, ptr %38, i32 0, i32 0
  %40 = load i32, ptr %39, align 8, !tbaa !26
  %41 = lshr i32 %40, 8
  %42 = and i32 %41, 255
  %43 = trunc i32 %42 to i8
  %44 = load ptr, ptr %5, align 8, !tbaa !23
  store i8 %43, ptr %44, align 1, !tbaa !28
  %45 = load ptr, ptr %5, align 8, !tbaa !23
  %46 = getelementptr inbounds nuw i8, ptr %45, i32 1
  store ptr %46, ptr %5, align 8, !tbaa !23
  %47 = load ptr, ptr %3, align 8, !tbaa !3
  %48 = getelementptr inbounds nuw %struct.H5S_t, ptr %47, i32 0, i32 1
  %49 = getelementptr inbounds nuw %struct.H5S_select_t, ptr %48, i32 0, i32 0
  %50 = load ptr, ptr %49, align 8, !tbaa !25
  %51 = getelementptr inbounds nuw %struct.H5S_select_class_t, ptr %50, i32 0, i32 0
  %52 = load i32, ptr %51, align 8, !tbaa !26
  %53 = lshr i32 %52, 16
  %54 = and i32 %53, 255
  %55 = trunc i32 %54 to i8
  %56 = load ptr, ptr %5, align 8, !tbaa !23
  store i8 %55, ptr %56, align 1, !tbaa !28
  %57 = load ptr, ptr %5, align 8, !tbaa !23
  %58 = getelementptr inbounds nuw i8, ptr %57, i32 1
  store ptr %58, ptr %5, align 8, !tbaa !23
  %59 = load ptr, ptr %3, align 8, !tbaa !3
  %60 = getelementptr inbounds nuw %struct.H5S_t, ptr %59, i32 0, i32 1
  %61 = getelementptr inbounds nuw %struct.H5S_select_t, ptr %60, i32 0, i32 0
  %62 = load ptr, ptr %61, align 8, !tbaa !25
  %63 = getelementptr inbounds nuw %struct.H5S_select_class_t, ptr %62, i32 0, i32 0
  %64 = load i32, ptr %63, align 8, !tbaa !26
  %65 = lshr i32 %64, 24
  %66 = and i32 %65, 255
  %67 = trunc i32 %66 to i8
  %68 = load ptr, ptr %5, align 8, !tbaa !23
  store i8 %67, ptr %68, align 1, !tbaa !28
  %69 = load ptr, ptr %5, align 8, !tbaa !23
  %70 = getelementptr inbounds nuw i8, ptr %69, i32 1
  store ptr %70, ptr %5, align 8, !tbaa !23
  br label %71

71:                                               ; preds = %23
  br label %72

72:                                               ; preds = %71
  br label %73

73:                                               ; preds = %72
  %74 = load ptr, ptr %5, align 8, !tbaa !23
  store i8 1, ptr %74, align 1, !tbaa !28
  %75 = load ptr, ptr %5, align 8, !tbaa !23
  %76 = getelementptr inbounds nuw i8, ptr %75, i32 1
  store ptr %76, ptr %5, align 8, !tbaa !23
  %77 = load ptr, ptr %5, align 8, !tbaa !23
  store i8 0, ptr %77, align 1, !tbaa !28
  %78 = load ptr, ptr %5, align 8, !tbaa !23
  %79 = getelementptr inbounds nuw i8, ptr %78, i32 1
  store ptr %79, ptr %5, align 8, !tbaa !23
  %80 = load ptr, ptr %5, align 8, !tbaa !23
  store i8 0, ptr %80, align 1, !tbaa !28
  %81 = load ptr, ptr %5, align 8, !tbaa !23
  %82 = getelementptr inbounds nuw i8, ptr %81, i32 1
  store ptr %82, ptr %5, align 8, !tbaa !23
  %83 = load ptr, ptr %5, align 8, !tbaa !23
  store i8 0, ptr %83, align 1, !tbaa !28
  %84 = load ptr, ptr %5, align 8, !tbaa !23
  %85 = getelementptr inbounds nuw i8, ptr %84, i32 1
  store ptr %85, ptr %5, align 8, !tbaa !23
  br label %86

86:                                               ; preds = %73
  br label %87

87:                                               ; preds = %86
  br label %88

88:                                               ; preds = %87
  %89 = load ptr, ptr %5, align 8, !tbaa !23
  store i8 0, ptr %89, align 1, !tbaa !28
  %90 = load ptr, ptr %5, align 8, !tbaa !23
  %91 = getelementptr inbounds nuw i8, ptr %90, i32 1
  store ptr %91, ptr %5, align 8, !tbaa !23
  %92 = load ptr, ptr %5, align 8, !tbaa !23
  store i8 0, ptr %92, align 1, !tbaa !28
  %93 = load ptr, ptr %5, align 8, !tbaa !23
  %94 = getelementptr inbounds nuw i8, ptr %93, i32 1
  store ptr %94, ptr %5, align 8, !tbaa !23
  %95 = load ptr, ptr %5, align 8, !tbaa !23
  store i8 0, ptr %95, align 1, !tbaa !28
  %96 = load ptr, ptr %5, align 8, !tbaa !23
  %97 = getelementptr inbounds nuw i8, ptr %96, i32 1
  store ptr %97, ptr %5, align 8, !tbaa !23
  %98 = load ptr, ptr %5, align 8, !tbaa !23
  store i8 0, ptr %98, align 1, !tbaa !28
  %99 = load ptr, ptr %5, align 8, !tbaa !23
  %100 = getelementptr inbounds nuw i8, ptr %99, i32 1
  store ptr %100, ptr %5, align 8, !tbaa !23
  br label %101

101:                                              ; preds = %88
  br label %102

102:                                              ; preds = %101
  br label %103

103:                                              ; preds = %102
  %104 = load ptr, ptr %5, align 8, !tbaa !23
  store i8 0, ptr %104, align 1, !tbaa !28
  %105 = load ptr, ptr %5, align 8, !tbaa !23
  %106 = getelementptr inbounds nuw i8, ptr %105, i32 1
  store ptr %106, ptr %5, align 8, !tbaa !23
  %107 = load ptr, ptr %5, align 8, !tbaa !23
  store i8 0, ptr %107, align 1, !tbaa !28
  %108 = load ptr, ptr %5, align 8, !tbaa !23
  %109 = getelementptr inbounds nuw i8, ptr %108, i32 1
  store ptr %109, ptr %5, align 8, !tbaa !23
  %110 = load ptr, ptr %5, align 8, !tbaa !23
  store i8 0, ptr %110, align 1, !tbaa !28
  %111 = load ptr, ptr %5, align 8, !tbaa !23
  %112 = getelementptr inbounds nuw i8, ptr %111, i32 1
  store ptr %112, ptr %5, align 8, !tbaa !23
  %113 = load ptr, ptr %5, align 8, !tbaa !23
  store i8 0, ptr %113, align 1, !tbaa !28
  %114 = load ptr, ptr %5, align 8, !tbaa !23
  %115 = getelementptr inbounds nuw i8, ptr %114, i32 1
  store ptr %115, ptr %5, align 8, !tbaa !23
  br label %116

116:                                              ; preds = %103
  br label %117

117:                                              ; preds = %116
  %118 = load ptr, ptr %5, align 8, !tbaa !23
  %119 = load ptr, ptr %4, align 8, !tbaa !21
  store ptr %118, ptr %119, align 8, !tbaa !23
  br label %120

120:                                              ; preds = %117, %14
  call void @llvm.lifetime.end.p0(i64 8, ptr %5) #5
  ret i32 0
}