; Function Attrs: mustprogress nofree norecurse nosync nounwind willreturn memory(readwrite, inaccessiblemem: none) uwtable
define internal noundef i32 @H5S__none_serialize(ptr noundef readonly captures(none) %0, ptr noundef captures(none) %1) #2 {
  %3 = load i8, ptr @H5S_init_g, align 1, !tbaa !3, !range !7, !noundef !8
  %4 = trunc nuw i8 %3 to i1
  %5 = load i8, ptr @H5_libterm_g, align 1, !range !7
  %6 = trunc nuw i8 %5 to i1
  %7 = xor i1 %6, true
  %8 = select i1 %4, i1 true, i1 %7
  br i1 %8, label %9, label %33, !prof !9

9:                                                ; preds = %2
  %10 = load ptr, ptr %1, align 8, !tbaa !20
  %11 = getelementptr inbounds nuw i8, ptr %0, i64 80
  %12 = load ptr, ptr %11, align 8, !tbaa !22
  %13 = load i32, ptr %12, align 8, !tbaa !23
  %14 = trunc i32 %13 to i8
  store i8 %14, ptr %10, align 1, !tbaa !25
  %15 = getelementptr inbounds nuw i8, ptr %10, i64 1
  %16 = load ptr, ptr %11, align 8, !tbaa !22
  %17 = load i32, ptr %16, align 8, !tbaa !23
  %18 = lshr i32 %17, 8
  %19 = trunc i32 %18 to i8
  store i8 %19, ptr %15, align 1, !tbaa !25
  %20 = getelementptr inbounds nuw i8, ptr %10, i64 2
  %21 = load ptr, ptr %11, align 8, !tbaa !22
  %22 = load i32, ptr %21, align 8, !tbaa !23
  %23 = lshr i32 %22, 16
  %24 = trunc i32 %23 to i8
  store i8 %24, ptr %20, align 1, !tbaa !25
  %25 = getelementptr inbounds nuw i8, ptr %10, i64 3
  %26 = load ptr, ptr %11, align 8, !tbaa !22
  %27 = load i32, ptr %26, align 8, !tbaa !23
  %28 = lshr i32 %27, 24
  %29 = trunc nuw i32 %28 to i8
  store i8 %29, ptr %25, align 1, !tbaa !25
  %30 = getelementptr inbounds nuw i8, ptr %10, i64 4
  store i8 1, ptr %30, align 1, !tbaa !25
  %31 = getelementptr inbounds nuw i8, ptr %10, i64 5
  %32 = getelementptr inbounds nuw i8, ptr %10, i64 16
  tail call void @llvm.memset.p0.i64(ptr noundef nonnull align 1 dereferenceable(11) %31, i8 0, i64 11, i1 false)
  store ptr %32, ptr %1, align 8, !tbaa !20
  br label %33

33:                                               ; preds = %9, %2
  ret i32 0
}